; Function Attrs: nofree nounwind uwtable
define noalias noundef ptr @Gia_ManCountNpnClasses(ptr noundef readonly captures(none) %0, ptr noundef readonly captures(none) %1, i32 noundef %2, ptr noundef readonly captures(none) %3) local_unnamed_addr #8 {
  %5 = alloca i64, align 8
  %6 = tail call noalias dereferenceable_or_null(16) ptr @malloc(i64 noundef 16) #28
  %7 = add i32 %2, -1
  %or.cond.i.i = icmp ult i32 %7, 15
  %spec.store.select.i.i = select i1 %or.cond.i.i, i32 16, i32 %2
  %8 = getelementptr inbounds nuw i8, ptr %6, i64 4
  store i32 %spec.store.select.i.i, ptr %6, align 8, !tbaa !90
  %.not.i.i = icmp eq i32 %spec.store.select.i.i, 0
  br i1 %.not.i.i, label %Vec_IntAlloc.exit.thread.i, label %Vec_IntAlloc.exit.i

Vec_IntAlloc.exit.thread.i:                       ; preds = %4
  %9 = getelementptr inbounds nuw i8, ptr %6, i64 8
  store ptr null, ptr %9, align 8, !tbaa !36
  store i32 %2, ptr %8, align 4, !tbaa !89
  br label %Vec_IntStart.exit

Vec_IntAlloc.exit.i:                              ; preds = %4
  %10 = sext i32 %spec.store.select.i.i to i64
  %11 = shl nsw i64 %10, 2
  %12 = tail call noalias ptr @malloc(i64 noundef %11) #28
  %13 = getelementptr inbounds nuw i8, ptr %6, i64 8
  store ptr %12, ptr %13, align 8, !tbaa !36
  store i32 %2, ptr %8, align 4, !tbaa !89
  %.not.i = icmp eq ptr %12, null
  br i1 %.not.i, label %Vec_IntStart.exit, label %14

14:                                               ; preds = %Vec_IntAlloc.exit.i
  %15 = sext i32 %2 to i64
  %16 = shl nsw i64 %15, 2
  tail call void @llvm.memset.p0.i64(ptr nonnull align 4 %12, i8 0, i64 %16, i1 false)
  br label %Vec_IntStart.exit

Vec_IntStart.exit:                                ; preds = %Vec_IntAlloc.exit.thread.i, %Vec_IntAlloc.exit.i, %14
  %.val15 = phi ptr [ null, %Vec_IntAlloc.exit.thread.i ], [ null, %Vec_IntAlloc.exit.i ], [ %12, %14 ]
  call void @llvm.lifetime.start.p0(i64 8, ptr nonnull %5) #26
  %17 = getelementptr i8, ptr %3, i64 4
  %.val1623 = load i32, ptr %17, align 4, !tbaa !165
  %18 = icmp sgt i32 %.val1623, 0
  br i1 %18, label %.lr.ph25, label %.critedge

.lr.ph25:                                         ; preds = %Vec_IntStart.exit
  %19 = getelementptr i8, ptr %3, i64 8
  %.val17 = load ptr, ptr %19, align 8, !tbaa !162
  %20 = getelementptr inbounds nuw i8, ptr %0, i64 32
  %21 = load ptr, ptr %20, align 8, !tbaa !104
  %22 = getelementptr i8, ptr %21, i64 4
  %23 = getelementptr i8, ptr %21, i64 8
  %.val16.i = load ptr, ptr %23, align 8, !tbaa !36
  %24 = getelementptr inbounds nuw i8, ptr %0, i64 24
  %25 = getelementptr inbounds nuw i8, ptr %0, i64 8
  %26 = getelementptr inbounds nuw i8, ptr %0, i64 12
  %27 = getelementptr inbounds nuw i8, ptr %0, i64 40
  %28 = getelementptr i8, ptr %1, i64 8
  %29 = load i32, ptr %0, align 8, !tbaa !68
  %30 = icmp sgt i32 %29, 0
  %31 = shl nuw i32 %29, 1
  %smax.i.i = tail call i32 @llvm.smax.i32(i32 %31, i32 1)
  %wide.trip.count.i.i = zext nneg i32 %smax.i.i to i64
  %32 = sext i32 %29 to i64
  %33 = shl nsw i64 %32, 3
  %34 = zext nneg i32 %.val1623 to i64
  br label %35

35:                                               ; preds = %.lr.ph25, %Vec_MemHashLookup.exit.thread
  %indvars.iv = phi i64 [ 0, %.lr.ph25 ], [ %indvars.iv.next, %Vec_MemHashLookup.exit.thread ]
  %36 = getelementptr inbounds nuw i64, ptr %.val17, i64 %indvars.iv
  %37 = load i64, ptr %36, align 8, !tbaa !70
  store i64 %37, ptr %5, align 8, !tbaa !70
  br i1 %30, label %.lr.ph.i.i, label %Vec_MemHashKey.exit.i

.lr.ph.i.i:                                       ; preds = %35, %.lr.ph.i.i
  %indvars.iv.i.i = phi i64 [ %indvars.iv.next.i.i, %.lr.ph.i.i ], [ 0, %35 ]
  %.012.i.i = phi i32 [ %44, %.lr.ph.i.i ], [ 0, %35 ]
  %38 = getelementptr inbounds nuw i32, ptr %5, i64 %indvars.iv.i.i
  %39 = load i32, ptr %38, align 4, !tbaa !37
  %40 = and i64 %indvars.iv.i.i, 7
  %41 = getelementptr inbounds nuw [8 x i32], ptr @Vec_MemHashKey.s_Primes, i64 0, i64 %40
  %42 = load i32, ptr %41, align 4, !tbaa !37
  %43 = mul i32 %42, %39
  %44 = add i32 %43, %.012.i.i
  %indvars.iv.next.i.i = add nuw nsw i64 %indvars.iv.i.i, 1
  %exitcond.not.i.i = icmp eq i64 %indvars.iv.next.i.i, %wide.trip.count.i.i
  br i1 %exitcond.not.i.i, label %Vec_MemHashKey.exit.i, label %.lr.ph.i.i, !llvm.loop !187

Vec_MemHashKey.exit.i:                            ; preds = %.lr.ph.i.i, %35
  %.0.lcssa.i.i = phi i32 [ 0, %35 ], [ %44, %.lr.ph.i.i ]
  %.val.i.i = load i32, ptr %22, align 4, !tbaa !89
  %45 = urem i32 %.0.lcssa.i.i, %.val.i.i
  %46 = sext i32 %45 to i64
  %47 = getelementptr inbounds i32, ptr %.val16.i, i64 %46
  %48 = load i32, ptr %47, align 4, !tbaa !37
  %.not17.i = icmp eq i32 %48, -1
  br i1 %.not17.i, label %Vec_MemHashLookup.exit.thread, label %.lr.ph.i

.lr.ph.i:                                         ; preds = %Vec_MemHashKey.exit.i
  %49 = load ptr, ptr %24, align 8, !tbaa !62
  %50 = load i32, ptr %25, align 8, !tbaa !65
  %51 = load i32, ptr %26, align 4, !tbaa !69
  %52 = ashr i32 %48, %50
  %53 = sext i32 %52 to i64
  %54 = getelementptr inbounds ptr, ptr %49, i64 %53
  %55 = load ptr, ptr %54, align 8, !tbaa !66
  %56 = and i32 %48, %51
  %57 = mul nsw i32 %56, %29
  %58 = sext i32 %57 to i64
  %59 = getelementptr inbounds i64, ptr %55, i64 %58
  %bcmp.i21 = call i32 @bcmp(ptr %59, ptr nonnull readonly %5, i64 %33)
  %.not15.i22 = icmp eq i32 %bcmp.i21, 0
  br i1 %.not15.i22, label %Vec_MemHashLookup.exit, label %.lr.ph

.lr.ph:                                           ; preds = %.lr.ph.i
  %60 = load ptr, ptr %27, align 8, !tbaa !105
  %61 = getelementptr i8, ptr %60, i64 8
  %.val.i = load ptr, ptr %61, align 8, !tbaa !36
  br label %71

62:                                               ; preds = %71
  %63 = ashr i32 %75, %50
  %64 = sext i32 %63 to i64
  %65 = getelementptr inbounds ptr, ptr %49, i64 %64
  %66 = load ptr, ptr %65, align 8, !tbaa !66
  %67 = and i32 %75, %51
  %68 = mul nsw i32 %67, %29
  %69 = sext i32 %68 to i64
  %70 = getelementptr inbounds i64, ptr %66, i64 %69
  %bcmp.i = call i32 @bcmp(ptr %70, ptr nonnull readonly %5, i64 %33)
  %.not15.i = icmp eq i32 %bcmp.i, 0
  br i1 %.not15.i, label %Vec_MemHashLookup.exit, label %71, !llvm.loop !188

71:                                               ; preds = %.lr.ph, %62
  %72 = phi i32 [ %48, %.lr.ph ], [ %75, %62 ]
  %73 = sext i32 %72 to i64
  %74 = getelementptr inbounds i32, ptr %.val.i, i64 %73
  %75 = load i32, ptr %74, align 4, !tbaa !37
  %.not.i18 = icmp eq i32 %75, -1
  br i1 %.not.i18, label %Vec_MemHashLookup.exit.thread, label %62, !llvm.loop !188

Vec_MemHashLookup.exit:                           ; preds = %62, %.lr.ph.i
  %.pr = phi i32 [ %48, %.lr.ph.i ], [ %75, %62 ]
  %.val = load ptr, ptr %28, align 8, !tbaa !36
  %76 = sext i32 %.pr to i64
  %77 = getelementptr inbounds i32, ptr %.val, i64 %76
  %78 = load i32, ptr %77, align 4, !tbaa !37
  %79 = icmp eq i32 %78, -1
  br i1 %79, label %Vec_MemHashLookup.exit.thread, label %80

80:                                               ; preds = %Vec_MemHashLookup.exit
  %81 = sext i32 %78 to i64
  %82 = getelementptr inbounds i32, ptr %.val15, i64 %81
  %83 = load i32, ptr %82, align 4, !tbaa !37
  %84 = add nsw i32 %83, 1
  store i32 %84, ptr %82, align 4, !tbaa !37
  br label %Vec_MemHashLookup.exit.thread

Vec_MemHashLookup.exit.thread:                    ; preds = %71, %Vec_MemHashKey.exit.i, %80, %Vec_MemHashLookup.exit
  %indvars.iv.next = add nuw nsw i64 %indvars.iv, 1
  %85 = icmp samesign ult i64 %indvars.iv.next, %34
  br i1 %85, label %35, label %.critedge, !llvm.loop !210

.critedge:                                        ; preds = %Vec_MemHashLookup.exit.thread, %Vec_IntStart.exit
  call void @llvm.lifetime.end.p0(i64 8, ptr nonnull %5) #26
  ret ptr %6
}